target datalayout = "e-m:e-p270:32:32-p271:32:32-p272:64:64-i64:64-i128:128-f80:128-n8:16:32:64-S128"
target triple = "x86_64-pc-linux-gnu"

%struct.DdManager = type { %struct.DdNode, ptr, ptr, ptr, ptr, ptr, ptr, ptr, i32, i32, double, double, double, i32, i32, i32, i32, i32, i32, ptr, ptr, %struct.DdSubtable, i32, i32, i32, i32, i32, i32, i32, double, i32, i32, i32, ptr, i64, double, i32, ptr, ptr, ptr, ptr, ptr, ptr, ptr, i32, ptr, ptr, ptr, ptr, ptr, ptr, i32, i32, i32, double, i32, i32, i32, i32, double, double, i32, i32, i32, i32, i32, i32, i32, i32, i32, ptr, ptr, i32, i32, i32, i32, i32, i32, ptr, ptr, ptr, ptr, ptr, ptr, ptr, ptr, i32, i64, i64, i64, i32, i64, i64, double, double, double, double, double, double, i32, ptr, ptr, i64 }
%struct.DdNode = type { i32, i32, ptr, %union.anon, i64 }
%union.anon = type { %struct.DdChildren }
%struct.DdChildren = type { ptr, ptr }
%struct.DdSubtable = type { ptr, i32, i32, i32, i32, i32, i32, i32, i32, i32, i32, i32 }

@background = internal global ptr null, align 8
@zero = internal global ptr null, align 8
@.str.5 = private unnamed_addr constant [2 x i8] c"\0A\00", align 1
@.str.6 = private unnamed_addr constant [18 x i8] c": is the NULL DD\0A\00", align 1
@.str.7 = private unnamed_addr constant [18 x i8] c": is the zero DD\0A\00", align 1
@.str.8 = private unnamed_addr constant [34 x i8] c": %d nodes %d leaves %g minterms\0A\00", align 1

; Function Attrs: nounwind uwtable
define i32 @Cudd_PrintMinterm(ptr noundef %0, ptr noundef %1) #0 {
  %3 = alloca i32, align 4
  %4 = alloca ptr, align 8
  %5 = alloca ptr, align 8
  %6 = alloca i32, align 4
  %7 = alloca ptr, align 8
  store ptr %0, ptr %4, align 8
  store ptr %1, ptr %5, align 8
  %8 = load ptr, ptr %4, align 8
  %9 = getelementptr inbounds %struct.DdManager, ptr %8, i32 0, i32 5
  %10 = load ptr, ptr %9, align 8
  store ptr %10, ptr @background, align 8
  %11 = load ptr, ptr %4, align 8
  %12 = getelementptr inbounds %struct.DdManager, ptr %11, i32 0, i32 1
  %13 = load ptr, ptr %12, align 8
  %14 = ptrtoint ptr %13 to i64
  %15 = xor i64 %14, 1
  %16 = inttoptr i64 %15 to ptr
  store ptr %16, ptr @zero, align 8
  %17 = load ptr, ptr %4, align 8
  %18 = getelementptr inbounds %struct.DdManager, ptr %17, i32 0, i32 15
  %19 = load i32, ptr %18, align 8
  %20 = sext i32 %19 to i64
  %21 = mul i64 4, %20
  %22 = call noalias ptr @malloc(i64 noundef %21) #5
  store ptr %22, ptr %7, align 8
  %23 = load ptr, ptr %7, align 8
  %24 = icmp eq ptr %23, null
  br i1 %24, label %25, label %28

25:                                               ; preds = %2
  %26 = load ptr, ptr %4, align 8
  %27 = getelementptr inbounds %struct.DdManager, ptr %26, i32 0, i32 86
  store i32 1, ptr %27, align 8
  store i32 0, ptr %3, align 4
  br label %53

28:                                               ; preds = %2
  store i32 0, ptr %6, align 4
  br label %29

29:                                               ; preds = %40, %28
  %30 = load i32, ptr %6, align 4
  %31 = load ptr, ptr %4, align 8
  %32 = getelementptr inbounds %struct.DdManager, ptr %31, i32 0, i32 15
  %33 = load i32, ptr %32, align 8
  %34 = icmp slt i32 %30, %33
  br i1 %34, label %35, label %43

35:                                               ; preds = %29
  %36 = load ptr, ptr %7, align 8
  %37 = load i32, ptr %6, align 4
  %38 = sext i32 %37 to i64
  %39 = getelementptr inbounds i32, ptr %36, i64 %38
  store i32 2, ptr %39, align 4
  br label %40

40:                                               ; preds = %35
  %41 = load i32, ptr %6, align 4
  %42 = add nsw i32 %41, 1
  store i32 %42, ptr %6, align 4
  br label %29, !llvm.loop !4

43:                                               ; preds = %29
  %44 = load ptr, ptr %4, align 8
  %45 = load ptr, ptr %5, align 8
  %46 = load ptr, ptr %7, align 8
  call void @ddPrintMintermAux(ptr noundef %44, ptr noundef %45, ptr noundef %46)
  %47 = load ptr, ptr %7, align 8
  %48 = icmp ne ptr %47, null
  br i1 %48, label %49, label %51

49:                                               ; preds = %43
  %50 = load ptr, ptr %7, align 8
  call void @free(ptr noundef %50) #6
  store ptr null, ptr %7, align 8
  br label %52

51:                                               ; preds = %43
  br label %52

52:                                               ; preds = %51, %49
  store i32 1, ptr %3, align 4
  br label %53

53:                                               ; preds = %52, %25
  %54 = load i32, ptr %3, align 4
  ret i32 %54
}

; Function Attrs: nounwind uwtable
define i32 @cuddP(ptr noundef %0, ptr noundef %1) #0 {
  %3 = alloca i32, align 4
  %4 = alloca ptr, align 8
  %5 = alloca ptr, align 8
  %6 = alloca i32, align 4
  %7 = alloca ptr, align 8
  store ptr %0, ptr %4, align 8
  store ptr %1, ptr %5, align 8
  %8 = call ptr @st__init_table(ptr noundef @st__ptrcmp, ptr noundef @st__ptrhash)
  store ptr %8, ptr %7, align 8
  %9 = load ptr, ptr %7, align 8
  %10 = icmp eq ptr %9, null
  br i1 %10, label %11, label %12

11:                                               ; preds = %2
  store i32 0, ptr %3, align 4
  br label %23

12:                                               ; preds = %2
  %13 = load ptr, ptr %4, align 8
  %14 = load ptr, ptr %5, align 8
  %15 = load ptr, ptr %7, align 8
  %16 = call i32 @dp2(ptr noundef %13, ptr noundef %14, ptr noundef %15)
  store i32 %16, ptr %6, align 4
  %17 = load ptr, ptr %7, align 8
  call void @st__free_table(ptr noundef %17)
  %18 = load ptr, ptr %4, align 8
  %19 = getelementptr inbounds %struct.DdManager, ptr %18, i32 0, i32 84
  %20 = load ptr, ptr %19, align 8
  %21 = call i32 @fputc(i32 noundef 10, ptr noundef %20)
  %22 = load i32, ptr %6, align 4
  store i32 %22, ptr %3, align 4
  br label %23

23:                                               ; preds = %12, %11
  %24 = load i32, ptr %3, align 4
  ret i32 %24
}

; Function Attrs: nounwind uwtable
define i32 @Cudd_CountLeaves(ptr noundef %0) #0 {
  %2 = alloca ptr, align 8
  %3 = alloca i32, align 4
  store ptr %0, ptr %2, align 8
  %4 = load ptr, ptr %2, align 8
  %5 = ptrtoint ptr %4 to i64
  %6 = and i64 %5, -2
  %7 = inttoptr i64 %6 to ptr
  %8 = call i32 @ddLeavesInt(ptr noundef %7)
  store i32 %8, ptr %3, align 4
  %9 = load ptr, ptr %2, align 8
  %10 = ptrtoint ptr %9 to i64
  %11 = and i64 %10, -2
  %12 = inttoptr i64 %11 to ptr
  call void @ddClearFlag(ptr noundef %12)
  %13 = load i32, ptr %3, align 4
  ret i32 %13
}

; Function Attrs: nounwind uwtable
define i32 @Cudd_DagSize(ptr noundef %0) #0 {
  %2 = alloca ptr, align 8
  %3 = alloca i32, align 4
  store ptr %0, ptr %2, align 8
  %4 = load ptr, ptr %2, align 8
  %5 = ptrtoint ptr %4 to i64
  %6 = and i64 %5, -2
  %7 = inttoptr i64 %6 to ptr
  %8 = call i32 @ddDagInt(ptr noundef %7)
  store i32 %8, ptr %3, align 4
  %9 = load ptr, ptr %2, align 8
  %10 = ptrtoint ptr %9 to i64
  %11 = and i64 %10, -2
  %12 = inttoptr i64 %11 to ptr
  call void @ddClearFlag(ptr noundef %12)
  %13 = load i32, ptr %3, align 4
  ret i32 %13
}

; Function Attrs: nounwind uwtable
define i32 @Cudd_PrintDebug(ptr noundef %0, ptr noundef %1, i32 noundef %2, i32 noundef %3) #0 {
  %5 = alloca i32, align 4
  %6 = alloca ptr, align 8
  %7 = alloca ptr, align 8
  %8 = alloca i32, align 4
  %9 = alloca i32, align 4
  %10 = alloca ptr, align 8
  %11 = alloca ptr, align 8
  %12 = alloca i32, align 4
  %13 = alloca i32, align 4
  %14 = alloca double, align 8
  %15 = alloca i32, align 4
  store ptr %0, ptr %6, align 8
  store ptr %1, ptr %7, align 8
  store i32 %2, ptr %8, align 4
  store i32 %3, ptr %9, align 4
  store i32 1, ptr %15, align 4
  %16 = load ptr, ptr %7, align 8
  %17 = icmp eq ptr %16, null
  br i1 %17, label %18, label %27

18:                                               ; preds = %4
  %19 = load ptr, ptr %6, align 8
  %20 = getelementptr inbounds %struct.DdManager, ptr %19, i32 0, i32 84
  %21 = load ptr, ptr %20, align 8
  %22 = call i32 (ptr, ptr, ...) @fprintf(ptr noundef %21, ptr noundef @.str.6) #6
  %23 = load ptr, ptr %6, align 8
  %24 = getelementptr inbounds %struct.DdManager, ptr %23, i32 0, i32 84
  %25 = load ptr, ptr %24, align 8
  %26 = call i32 @fflush(ptr noundef %25)
  store i32 0, ptr %5, align 4
  br label %120

27:                                               ; preds = %4
  %28 = load ptr, ptr %6, align 8
  %29 = getelementptr inbounds %struct.DdManager, ptr %28, i32 0, i32 2
  %30 = load ptr, ptr %29, align 8
  store ptr %30, ptr %10, align 8
  %31 = load ptr, ptr %6, align 8
  %32 = getelementptr inbounds %struct.DdManager, ptr %31, i32 0, i32 1
  %33 = load ptr, ptr %32, align 8
  %34 = ptrtoint ptr %33 to i64
  %35 = xor i64 %34, 1
  %36 = inttoptr i64 %35 to ptr
  store ptr %36, ptr %11, align 8
  %37 = load ptr, ptr %7, align 8
  %38 = load ptr, ptr %10, align 8
  %39 = icmp eq ptr %37, %38
  br i1 %39, label %44, label %40

40:                                               ; preds = %27
  %41 = load ptr, ptr %7, align 8
  %42 = load ptr, ptr %11, align 8
  %43 = icmp eq ptr %41, %42
  br i1 %43, label %44, label %56

44:                                               ; preds = %40, %27
  %45 = load i32, ptr %9, align 4
  %46 = icmp sgt i32 %45, 0
  br i1 %46, label %47, label %56

47:                                               ; preds = %44
  %48 = load ptr, ptr %6, align 8
  %49 = getelementptr inbounds %struct.DdManager, ptr %48, i32 0, i32 84
  %50 = load ptr, ptr %49, align 8
  %51 = call i32 (ptr, ptr, ...) @fprintf(ptr noundef %50, ptr noundef @.str.7) #6
  %52 = load ptr, ptr %6, align 8
  %53 = getelementptr inbounds %struct.DdManager, ptr %52, i32 0, i32 84
  %54 = load ptr, ptr %53, align 8
  %55 = call i32 @fflush(ptr noundef %54)
  store i32 1, ptr %5, align 4
  br label %120

56:                                               ; preds = %44, %40
  %57 = load i32, ptr %9, align 4
  %58 = icmp sgt i32 %57, 0
  br i1 %58, label %59, label %118

59:                                               ; preds = %56
  %60 = load ptr, ptr %7, align 8
  %61 = call i32 @Cudd_DagSize(ptr noundef %60)
  store i32 %61, ptr %12, align 4
  %62 = load i32, ptr %12, align 4
  %63 = icmp eq i32 %62, -1
  br i1 %63, label %64, label %65

64:                                               ; preds = %59
  store i32 0, ptr %15, align 4
  br label %65

65:                                               ; preds = %64, %59
  %66 = load ptr, ptr %7, align 8
  %67 = call i32 @Cudd_CountLeaves(ptr noundef %66)
  store i32 %67, ptr %13, align 4
  %68 = load i32, ptr %13, align 4
  %69 = icmp eq i32 %68, -1
  br i1 %69, label %70, label %71

70:                                               ; preds = %65
  store i32 0, ptr %15, align 4
  br label %71

71:                                               ; preds = %70, %65
  %72 = load ptr, ptr %6, align 8
  %73 = load ptr, ptr %7, align 8
  %74 = load i32, ptr %8, align 4
  %75 = call double @Cudd_CountMinterm(ptr noundef %72, ptr noundef %73, i32 noundef %74)
  store double %75, ptr %14, align 8
  %76 = load double, ptr %14, align 8
  %77 = fcmp oeq double %76, -1.000000e+00
  br i1 %77, label %78, label %79

78:                                               ; preds = %71
  store i32 0, ptr %15, align 4
  br label %79

79:                                               ; preds = %78, %71
  %80 = load ptr, ptr %6, align 8
  %81 = getelementptr inbounds %struct.DdManager, ptr %80, i32 0, i32 84
  %82 = load ptr, ptr %81, align 8
  %83 = load i32, ptr %12, align 4
  %84 = load i32, ptr %13, align 4
  %85 = load double, ptr %14, align 8
  %86 = call i32 (ptr, ptr, ...) @fprintf(ptr noundef %82, ptr noundef @.str.8, i32 noundef %83, i32 noundef %84, double noundef %85) #6
  %87 = load i32, ptr %9, align 4
  %88 = icmp sgt i32 %87, 2
  br i1 %88, label %89, label %96

89:                                               ; preds = %79
  %90 = load ptr, ptr %6, align 8
  %91 = load ptr, ptr %7, align 8
  %92 = call i32 @cuddP(ptr noundef %90, ptr noundef %91)
  %93 = icmp ne i32 %92, 0
  br i1 %93, label %95, label %94

94:                                               ; preds = %89
  store i32 0, ptr %15, align 4
  br label %95

95:                                               ; preds = %94, %89
  br label %96

96:                                               ; preds = %95, %79
  %97 = load i32, ptr %9, align 4
  %98 = icmp eq i32 %97, 2
  br i1 %98, label %102, label %99

99:                                               ; preds = %96
  %100 = load i32, ptr %9, align 4
  %101 = icmp sgt i32 %100, 3
  br i1 %101, label %102, label %113

102:                                              ; preds = %99, %96
  %103 = load ptr, ptr %6, align 8
  %104 = load ptr, ptr %7, align 8
  %105 = call i32 @Cudd_PrintMinterm(ptr noundef %103, ptr noundef %104)
  %106 = icmp ne i32 %105, 0
  br i1 %106, label %108, label %107

107:                                              ; preds = %102
  store i32 0, ptr %15, align 4
  br label %108

108:                                              ; preds = %107, %102
  %109 = load ptr, ptr %6, align 8
  %110 = getelementptr inbounds %struct.DdManager, ptr %109, i32 0, i32 84
  %111 = load ptr, ptr %110, align 8
  %112 = call i32 (ptr, ptr, ...) @fprintf(ptr noundef %111, ptr noundef @.str.5) #6
  br label %113

113:                                              ; preds = %108, %99
  %114 = load ptr, ptr %6, align 8
  %115 = getelementptr inbounds %struct.DdManager, ptr %114, i32 0, i32 84
  %116 = load ptr, ptr %115, align 8
  %117 = call i32 @fflush(ptr noundef %116)
  br label %118

118:                                              ; preds = %113, %56
  %119 = load i32, ptr %15, align 4
  store i32 %119, ptr %5, align 4
  br label %120

120:                                              ; preds = %118, %47, %18
  %121 = load i32, ptr %5, align 4
  ret i32 %121
}