; Function Attrs: nounwind uwtable
define range(i32 0, 2) i32 @Cudd_PrintDebug(ptr noundef %0, ptr noundef %1, i32 noundef %2, i32 noundef %3) local_unnamed_addr #0 {
  %5 = icmp eq ptr %1, null
  br i1 %5, label %6, label %10

6:                                                ; preds = %4
  %7 = getelementptr inbounds nuw i8, ptr %0, i64 608
  %8 = load ptr, ptr %7, align 8
  %9 = tail call i64 @fwrite(ptr nonnull @.str.6, i64 17, i64 1, ptr %8)
  br label %.thread.sink.split

10:                                               ; preds = %4
  %11 = getelementptr inbounds nuw i8, ptr %0, i64 48
  %12 = load ptr, ptr %11, align 8
  %13 = icmp eq ptr %1, %12
  br i1 %13, label %22, label %14

14:                                               ; preds = %10
  %15 = getelementptr inbounds nuw i8, ptr %0, i64 40
  %16 = load ptr, ptr %15, align 8
  %17 = ptrtoint ptr %16 to i64
  %18 = xor i64 %17, 1
  %19 = inttoptr i64 %18 to ptr
  %20 = icmp eq ptr %1, %19
  %21 = icmp sgt i32 %3, 0
  %or.cond = and i1 %21, %20
  br i1 %or.cond, label %23, label %27

22:                                               ; preds = %10
  %.old1 = icmp sgt i32 %3, 0
  br i1 %.old1, label %23, label %.thread

23:                                               ; preds = %14, %22
  %24 = getelementptr inbounds nuw i8, ptr %0, i64 608
  %25 = load ptr, ptr %24, align 8
  %26 = tail call i64 @fwrite(ptr nonnull @.str.7, i64 17, i64 1, ptr %25)
  br label %.thread.sink.split

27:                                               ; preds = %14
  br i1 %21, label %28, label %.thread

28:                                               ; preds = %27
  %29 = ptrtoint ptr %1 to i64
  %30 = and i64 %29, -2
  %31 = inttoptr i64 %30 to ptr
  %32 = tail call fastcc i32 @ddDagInt(ptr noundef %31)
  tail call fastcc void @ddClearFlag(ptr noundef %31)
  %33 = icmp ne i32 %32, -1
  %34 = tail call fastcc i32 @ddLeavesInt(ptr noundef %31)
  tail call fastcc void @ddClearFlag(ptr noundef %31)
  %35 = icmp ne i32 %34, -1
  %36 = tail call double @Cudd_CountMinterm(ptr noundef nonnull %0, ptr noundef nonnull %1, i32 noundef %2)
  %37 = fcmp une double %36, -1.000000e+00
  %38 = select i1 %37, i1 %35, i1 false
  %narrow51 = select i1 %38, i1 %33, i1 false
  %39 = getelementptr inbounds nuw i8, ptr %0, i64 608
  %40 = load ptr, ptr %39, align 8
  %41 = tail call i32 (ptr, ptr, ...) @fprintf(ptr noundef %40, ptr noundef nonnull @.str.8, i32 noundef %32, i32 noundef %34, double noundef %36) #23
  %42 = icmp samesign ugt i32 %3, 2
  br i1 %42, label %43, label %49

43:                                               ; preds = %28
  %44 = tail call ptr @st__init_table(ptr noundef nonnull @st__ptrcmp, ptr noundef nonnull @st__ptrhash) #23
  %45 = icmp eq ptr %44, null
  br i1 %45, label %cuddP.exit.thread, label %cuddP.exit

cuddP.exit:                                       ; preds = %43
  %46 = tail call fastcc i32 @dp2(ptr noundef nonnull %0, ptr noundef nonnull %1, ptr noundef %44)
  tail call void @st__free_table(ptr noundef nonnull %44) #23
  %47 = load ptr, ptr %39, align 8
  %48 = tail call i32 @fputc(i32 noundef 10, ptr noundef %47)
  %.fr = freeze i32 %46
  %.not = icmp eq i32 %.fr, 0
  br i1 %.not, label %cuddP.exit.thread, label %49

cuddP.exit.thread:                                ; preds = %43, %cuddP.exit
  br label %49

49:                                               ; preds = %cuddP.exit.thread, %cuddP.exit, %28
  %.4.shrunk = phi i1 [ %narrow51, %28 ], [ false, %cuddP.exit.thread ], [ %narrow51, %cuddP.exit ]
  %.4 = zext i1 %.4.shrunk to i32
  %50 = icmp eq i32 %3, 2
  %51 = icmp samesign ugt i32 %3, 3
  %or.cond4 = or i1 %50, %51
  br i1 %or.cond4, label %52, label %.thread.sink.split

52:                                               ; preds = %49
  %53 = getelementptr inbounds nuw i8, ptr %0, i64 72
  %54 = load ptr, ptr %53, align 8
  store ptr %54, ptr @background, align 8
  %55 = load ptr, ptr %15, align 8
  %56 = ptrtoint ptr %55 to i64
  %57 = xor i64 %56, 1
  %58 = inttoptr i64 %57 to ptr
  store ptr %58, ptr @zero, align 8
  %59 = getelementptr inbounds nuw i8, ptr %0, i64 136
  %60 = load i32, ptr %59, align 8
  %61 = sext i32 %60 to i64
  %62 = shl nsw i64 %61, 2
  %63 = tail call noalias ptr @malloc(i64 noundef %62) #22
  %64 = icmp eq ptr %63, null
  br i1 %64, label %67, label %.preheader.i

.preheader.i:                                     ; preds = %52
  %65 = icmp sgt i32 %60, 0
  br i1 %65, label %.lr.ph.preheader.i, label %Cudd_PrintMinterm.exit

.lr.ph.preheader.i:                               ; preds = %.preheader.i
  %wide.trip.count.i = zext nneg i32 %60 to i64
  br label %.lr.ph.i

.lr.ph.i:                                         ; preds = %.lr.ph.i, %.lr.ph.preheader.i
  %indvars.iv.i = phi i64 [ 0, %.lr.ph.preheader.i ], [ %indvars.iv.next.i, %.lr.ph.i ]
  %66 = getelementptr inbounds nuw i32, ptr %63, i64 %indvars.iv.i
  store i32 2, ptr %66, align 4
  %indvars.iv.next.i = add nuw nsw i64 %indvars.iv.i, 1
  %exitcond.not.i = icmp eq i64 %indvars.iv.next.i, %wide.trip.count.i
  br i1 %exitcond.not.i, label %Cudd_PrintMinterm.exit, label %.lr.ph.i, !llvm.loop !4

Cudd_PrintMinterm.exit:                           ; preds = %.lr.ph.i, %.preheader.i
  tail call fastcc void @ddPrintMintermAux(ptr noundef nonnull %0, ptr noundef nonnull %1, ptr noundef %63)
  tail call void @free(ptr noundef nonnull %63) #23
  br label %69

67:                                               ; preds = %52
  %68 = getelementptr inbounds nuw i8, ptr %0, i64 624
  store i32 1, ptr %68, align 8
  br label %69

69:                                               ; preds = %Cudd_PrintMinterm.exit, %67
  %70 = phi i32 [ 0, %67 ], [ %.4, %Cudd_PrintMinterm.exit ]
  %71 = load ptr, ptr %39, align 8
  %fputc = tail call i32 @fputc(i32 10, ptr %71)
  br label %.thread.sink.split

.thread.sink.split:                               ; preds = %69, %49, %6, %23
  %.sink.in = phi ptr [ %24, %23 ], [ %7, %6 ], [ %39, %49 ], [ %39, %69 ]
  %.040.ph = phi i32 [ 1, %23 ], [ 0, %6 ], [ %.4, %49 ], [ %70, %69 ]
  %.sink = load ptr, ptr %.sink.in, align 8
  %72 = tail call i32 @fflush(ptr noundef %.sink)
  br label %.thread

.thread:                                          ; preds = %.thread.sink.split, %22, %27
  %.040 = phi i32 [ 1, %27 ], [ 1, %22 ], [ %.040.ph, %.thread.sink.split ]
  ret i32 %.040
}